target datalayout = "e-m:e-p270:32:32-p271:32:32-p272:64:64-i64:64-f80:128-n8:16:32:64-S128"
target triple = "x86_64-pc-linux-gnu"

@__const.main.min = private unnamed_addr constant [10 x i32] [i32 100, i32 100, i32 100, i32 100, i32 100, i32 100, i32 100, i32 100, i32 100, i32 100], align 16
@.str = private unnamed_addr constant [6 x i8] c"%d,%d\00", align 1
@.str.1 = private unnamed_addr constant [3 x i8] c"%d\00", align 1
@.str.2 = private unnamed_addr constant [6 x i8] c"%d+%d\00", align 1
@.str.3 = private unnamed_addr constant [3 x i8] c"No\00", align 1

; Function Attrs: noinline nounwind uwtable
define dso_local i32 @main(i32 %0, i8** %1) #0 {
  %3 = alloca i32, align 4
  %4 = alloca i32, align 4
  %5 = alloca i8**, align 8
  %6 = alloca i32, align 4
  %7 = alloca i32, align 4
  %8 = alloca i32, align 4
  %9 = alloca [10 x [10 x i32]], align 16
  %10 = alloca i32, align 4
  %11 = alloca i32, align 4
  %12 = alloca [10 x i32], align 16
  %13 = alloca [10 x i32], align 16
  store i32 0, i32* %3, align 4
  store i32 %0, i32* %4, align 4
  store i8** %1, i8*** %5, align 8
  store i32 0, i32* %6, align 4
  %14 = bitcast [10 x i32]* %12 to i8*
  call void @llvm.memset.p0i8.i64(i8* align 16 %14, i8 0, i64 40, i1 false)
  %15 = bitcast [10 x i32]* %13 to i8*
  call void @llvm.memcpy.p0i8.p0i8.i64(i8* align 16 %15, i8* align 16 bitcast ([10 x i32]* @__const.main.min to i8*), i64 40, i1 false)
  %16 = call i32 (i8*, ...) @__isoc99_scanf(i8* getelementptr inbounds ([6 x i8], [6 x i8]* @.str, i64 0, i64 0), i32* %7, i32* %8)
  store i32 0, i32* %10, align 4
  br label %17

17:                                               ; preds = %38, %2
  %18 = load i32, i32* %10, align 4
  %19 = load i32, i32* %7, align 4
  %20 = icmp slt i32 %18, %19
  br i1 %20, label %21, label %41

21:                                               ; preds = %17
  store i32 0, i32* %11, align 4
  br label %22

22:                                               ; preds = %34, %21
  %23 = load i32, i32* %11, align 4
  %24 = load i32, i32* %8, align 4
  %25 = icmp slt i32 %23, %24
  br i1 %25, label %26, label %37

26:                                               ; preds = %22
  %27 = load i32, i32* %10, align 4
  %28 = sext i32 %27 to i64
  %29 = getelementptr inbounds [10 x [10 x i32]], [10 x [10 x i32]]* %9, i64 0, i64 %28
  %30 = load i32, i32* %11, align 4
  %31 = sext i32 %30 to i64
  %32 = getelementptr inbounds [10 x i32], [10 x i32]* %29, i64 0, i64 %31
  %33 = call i32 (i8*, ...) @__isoc99_scanf(i8* getelementptr inbounds ([3 x i8], [3 x i8]* @.str.1, i64 0, i64 0), i32* %32)
  br label %34

34:                                               ; preds = %26
  %35 = load i32, i32* %11, align 4
  %36 = add nsw i32 %35, 1
  store i32 %36, i32* %11, align 4
  br label %22

37:                                               ; preds = %22
  br label %38

38:                                               ; preds = %37
  %39 = load i32, i32* %10, align 4
  %40 = add nsw i32 %39, 1
  store i32 %40, i32* %10, align 4
  br label %17

41:                                               ; preds = %17
  store i32 0, i32* %10, align 4
  br label %42

42:                                               ; preds = %80, %41
  %43 = load i32, i32* %10, align 4
  %44 = load i32, i32* %7, align 4
  %45 = icmp slt i32 %43, %44
  br i1 %45, label %46, label %83

46:                                               ; preds = %42
  store i32 0, i32* %11, align 4
  br label %47

47:                                               ; preds = %76, %46
  %48 = load i32, i32* %11, align 4
  %49 = load i32, i32* %8, align 4
  %50 = icmp slt i32 %48, %49
  br i1 %50, label %51, label %79

51:                                               ; preds = %47
  %52 = load i32, i32* %10, align 4
  %53 = sext i32 %52 to i64
  %54 = getelementptr inbounds [10 x [10 x i32]], [10 x [10 x i32]]* %9, i64 0, i64 %53
  %55 = load i32, i32* %11, align 4
  %56 = sext i32 %55 to i64
  %57 = getelementptr inbounds [10 x i32], [10 x i32]* %54, i64 0, i64 %56
  %58 = load i32, i32* %57, align 4
  %59 = load i32, i32* %10, align 4
  %60 = sext i32 %59 to i64
  %61 = getelementptr inbounds [10 x i32], [10 x i32]* %12, i64 0, i64 %60
  %62 = load i32, i32* %61, align 4
  %63 = icmp sgt i32 %58, %62
  br i1 %63, label %64, label %75

64:                                               ; preds = %51
  %65 = load i32, i32* %10, align 4
  %66 = sext i32 %65 to i64
  %67 = getelementptr inbounds [10 x [10 x i32]], [10 x [10 x i32]]* %9, i64 0, i64 %66
  %68 = load i32, i32* %11, align 4
  %69 = sext i32 %68 to i64
  %70 = getelementptr inbounds [10 x i32], [10 x i32]* %67, i64 0, i64 %69
  %71 = load i32, i32* %70, align 4
  %72 = load i32, i32* %10, align 4
  %73 = sext i32 %72 to i64
  %74 = getelementptr inbounds [10 x i32], [10 x i32]* %12, i64 0, i64 %73
  store i32 %71, i32* %74, align 4
  br label %75

75:                                               ; preds = %64, %51
  br label %76

76:                                               ; preds = %75
  %77 = load i32, i32* %11, align 4
  %78 = add nsw i32 %77, 1
  store i32 %78, i32* %11, align 4
  br label %47

79:                                               ; preds = %47
  br label %80

80:                                               ; preds = %79
  %81 = load i32, i32* %10, align 4
  %82 = add nsw i32 %81, 1
  store i32 %82, i32* %10, align 4
  br label %42

83:                                               ; preds = %42
  store i32 0, i32* %11, align 4
  br label %84

84:                                               ; preds = %122, %83
  %85 = load i32, i32* %11, align 4
  %86 = load i32, i32* %8, align 4
  %87 = icmp slt i32 %85, %86
  br i1 %87, label %88, label %125

88:                                               ; preds = %84
  store i32 0, i32* %10, align 4
  br label %89

89:                                               ; preds = %118, %88
  %90 = load i32, i32* %10, align 4
  %91 = load i32, i32* %7, align 4
  %92 = icmp slt i32 %90, %91
  br i1 %92, label %93, label %121

93:                                               ; preds = %89
  %94 = load i32, i32* %10, align 4
  %95 = sext i32 %94 to i64
  %96 = getelementptr inbounds [10 x [10 x i32]], [10 x [10 x i32]]* %9, i64 0, i64 %95
  %97 = load i32, i32* %11, align 4
  %98 = sext i32 %97 to i64
  %99 = getelementptr inbounds [10 x i32], [10 x i32]* %96, i64 0, i64 %98
  %100 = load i32, i32* %99, align 4
  %101 = load i32, i32* %11, align 4
  %102 = sext i32 %101 to i64
  %103 = getelementptr inbounds [10 x i32], [10 x i32]* %13, i64 0, i64 %102
  %104 = load i32, i32* %103, align 4
  %105 = icmp slt i32 %100, %104
  br i1 %105, label %106, label %117

106:                                              ; preds = %93
  %107 = load i32, i32* %10, align 4
  %108 = sext i32 %107 to i64
  %109 = getelementptr inbounds [10 x [10 x i32]], [10 x [10 x i32]]* %9, i64 0, i64 %108
  %110 = load i32, i32* %11, align 4
  %111 = sext i32 %110 to i64
  %112 = getelementptr inbounds [10 x i32], [10 x i32]* %109, i64 0, i64 %111
  %113 = load i32, i32* %112, align 4
  %114 = load i32, i32* %11, align 4
  %115 = sext i32 %114 to i64
  %116 = getelementptr inbounds [10 x i32], [10 x i32]* %13, i64 0, i64 %115
  store i32 %113, i32* %116, align 4
  br label %117

117:                                              ; preds = %106, %93
  br label %118

118:                                              ; preds = %117
  %119 = load i32, i32* %10, align 4
  %120 = add nsw i32 %119, 1
  store i32 %120, i32* %10, align 4
  br label %89

121:                                              ; preds = %89
  br label %122

122:                                              ; preds = %121
  %123 = load i32, i32* %11, align 4
  %124 = add nsw i32 %123, 1
  store i32 %124, i32* %11, align 4
  br label %84

125:                                              ; preds = %84
  store i32 0, i32* %10, align 4
  br label %126

126:                                              ; preds = %154, %125
  %127 = load i32, i32* %10, align 4
  %128 = load i32, i32* %7, align 4
  %129 = icmp slt i32 %127, %128
  br i1 %129, label %130, label %157

130:                                              ; preds = %126
  store i32 0, i32* %11, align 4
  br label %131

131:                                              ; preds = %150, %130
  %132 = load i32, i32* %11, align 4
  %133 = load i32, i32* %8, align 4
  %134 = icmp slt i32 %132, %133
  br i1 %134, label %135, label %153

135:                                              ; preds = %131
  %136 = load i32, i32* %10, align 4
  %137 = sext i32 %136 to i64
  %138 = getelementptr inbounds [10 x i32], [10 x i32]* %12, i64 0, i64 %137
  %139 = load i32, i32* %138, align 4
  %140 = load i32, i32* %11, align 4
  %141 = sext i32 %140 to i64
  %142 = getelementptr inbounds [10 x i32], [10 x i32]* %13, i64 0, i64 %141
  %143 = load i32, i32* %142, align 4
  %144 = icmp eq i32 %139, %143
  br i1 %144, label %145, label %149

145:                                              ; preds = %135
  store i32 1, i32* %6, align 4
  %146 = load i32, i32* %10, align 4
  %147 = load i32, i32* %11, align 4
  %148 = call i32 (i8*, ...) @printf(i8* getelementptr inbounds ([6 x i8], [6 x i8]* @.str.2, i64 0, i64 0), i32 %146, i32 %147)
  br label %149

149:                                              ; preds = %145, %135
  br label %150

150:                                              ; preds = %149
  %151 = load i32, i32* %11, align 4
  %152 = add nsw i32 %151, 1
  store i32 %152, i32* %11, align 4
  br label %131

153:                                              ; preds = %131
  br label %154

154:                                              ; preds = %153
  %155 = load i32, i32* %10, align 4
  %156 = add nsw i32 %155, 1
  store i32 %156, i32* %10, align 4
  br label %126

157:                                              ; preds = %126
  %158 = load i32, i32* %6, align 4
  %159 = icmp eq i32 %158, 0
  br i1 %159, label %160, label %162

160:                                              ; preds = %157
  %161 = call i32 (i8*, ...) @printf(i8* getelementptr inbounds ([3 x i8], [3 x i8]* @.str.3, i64 0, i64 0))
  br label %162

162:                                              ; preds = %160, %157
  ret i32 0
}